target datalayout = "e-m:e-p270:32:32-p271:32:32-p272:64:64-i64:64-i128:128-f80:128-n8:16:32:64-S128"
target triple = "x86_64-pc-linux-gnu"

%"class.OpenSubdiv::v3_6_0::Bfr::SurfaceFactory" = type { %"class.OpenSubdiv::v3_6_0::Bfr::SurfaceFactoryMeshAdapter", i32, %"class.OpenSubdiv::v3_6_0::Sdc::Options", %"class.OpenSubdiv::v3_6_0::Bfr::SurfaceFactory::Options", i8, i32, ptr }
%"class.OpenSubdiv::v3_6_0::Bfr::SurfaceFactoryMeshAdapter" = type { ptr }
%"class.OpenSubdiv::v3_6_0::Sdc::Options" = type { i8, i8, i8, i8 }
%"class.OpenSubdiv::v3_6_0::Bfr::SurfaceFactory::Options" = type <{ i64, ptr, i8, i8, i8, [5 x i8] }>

; Function Attrs: mustprogress nounwind uwtable
define linkonce_odr noundef ptr @_ZNK10OpenSubdiv6v3_6_03Bfr14SurfaceFactory7Options16GetExternalCacheEv(ptr noundef nonnull align 8 dereferenceable(19) %0) #0 comdat align 2 {
  %2 = alloca ptr, align 8
  store ptr %0, ptr %2, align 8
  %3 = load ptr, ptr %2, align 8
  %4 = getelementptr inbounds nuw %"class.OpenSubdiv::v3_6_0::Bfr::SurfaceFactory::Options", ptr %3, i32 0, i32 1
  %5 = load ptr, ptr %4, align 8
  ret ptr %5
}

; Function Attrs: mustprogress nounwind uwtable
define linkonce_odr noundef zeroext i1 @_ZNK10OpenSubdiv6v3_6_03Bfr14SurfaceFactory7Options16IsCachingEnabledEv(ptr noundef nonnull align 8 dereferenceable(19) %0) #0 comdat align 2 {
  %2 = alloca ptr, align 8
  store ptr %0, ptr %2, align 8
  %3 = load ptr, ptr %2, align 8
  %4 = getelementptr inbounds nuw %"class.OpenSubdiv::v3_6_0::Bfr::SurfaceFactory::Options", ptr %3, i32 0, i32 2
  %5 = load i8, ptr %4, align 8
  %6 = and i8 %5, 1
  %7 = icmp ne i8 %6, 0
  ret i1 %7
}

; Function Attrs: mustprogress nounwind uwtable
define void @_ZN10OpenSubdiv6v3_6_03Bfr14SurfaceFactory16setInternalCacheEPNS1_19SurfaceFactoryCacheE(ptr noundef nonnull align 8 dereferenceable(56) %0, ptr noundef %1) #0 align 2 {
  %3 = alloca ptr, align 8
  %4 = alloca ptr, align 8
  store ptr %0, ptr %3, align 8
  store ptr %1, ptr %4, align 8
  %5 = load ptr, ptr %3, align 8
  %6 = getelementptr inbounds nuw %"class.OpenSubdiv::v3_6_0::Bfr::SurfaceFactory", ptr %5, i32 0, i32 3
  %7 = call noundef zeroext i1 @_ZNK10OpenSubdiv6v3_6_03Bfr14SurfaceFactory7Options16IsCachingEnabledEv(ptr noundef nonnull align 8 dereferenceable(19) %6)
  br i1 %7, label %8, label %16

8:                                                ; preds = %2
  %9 = getelementptr inbounds nuw %"class.OpenSubdiv::v3_6_0::Bfr::SurfaceFactory", ptr %5, i32 0, i32 3
  %10 = call noundef ptr @_ZNK10OpenSubdiv6v3_6_03Bfr14SurfaceFactory7Options16GetExternalCacheEv(ptr noundef nonnull align 8 dereferenceable(19) %9)
  %11 = icmp eq ptr %10, null
  br i1 %11, label %12, label %15

12:                                               ; preds = %8
  %13 = load ptr, ptr %4, align 8
  %14 = getelementptr inbounds nuw %"class.OpenSubdiv::v3_6_0::Bfr::SurfaceFactory", ptr %5, i32 0, i32 6
  store ptr %13, ptr %14, align 8
  br label %15

15:                                               ; preds = %12, %8
  br label %16

16:                                               ; preds = %15, %2
  ret void
}