; Function Attrs: mustprogress nofree norecurse nosync nounwind willreturn memory(argmem: readwrite) uwtable
define void @_ZN10OpenSubdiv6v3_6_03Bfr14SurfaceFactory16setInternalCacheEPNS1_19SurfaceFactoryCacheE(ptr noundef nonnull align 8 captures(none) dereferenceable(56) %0, ptr noundef %1) local_unnamed_addr #3 align 2 {
  %3 = getelementptr inbounds nuw i8, ptr %0, i64 32
  %4 = load i8, ptr %3, align 8
  %5 = and i8 %4, 1
  %6 = icmp ne i8 %5, 0
  %7 = getelementptr inbounds nuw i8, ptr %0, i64 24
  %8 = load ptr, ptr %7, align 8
  %9 = icmp eq ptr %8, null
  %or.cond = select i1 %6, i1 %9, i1 false
  br i1 %or.cond, label %10, label %12

10:                                               ; preds = %2
  %11 = getelementptr inbounds nuw i8, ptr %0, i64 48
  store ptr %1, ptr %11, align 8
  br label %12

12:                                               ; preds = %10, %2
  ret void
}